target datalayout = "e-m:e-p270:32:32-p271:32:32-p272:64:64-i64:64-i128:128-f80:128-n8:16:32:64-S128"
target triple = "x86_64-pc-linux-gnu"

; Function Attrs: nounwind uwtable
define internal i32 @cmp(ptr noundef %0, ptr noundef %1, ptr noundef %2) #0 {
  %4 = alloca i32, align 4
  %5 = alloca ptr, align 8
  %6 = alloca ptr, align 8
  %7 = alloca ptr, align 8
  %8 = alloca ptr, align 8
  %9 = alloca ptr, align 8
  %10 = alloca ptr, align 8
  %11 = alloca i32, align 4
  store ptr %0, ptr %5, align 8, !tbaa !3
  store ptr %1, ptr %6, align 8, !tbaa !3
  store ptr %2, ptr %7, align 8, !tbaa !3
  call void @llvm.lifetime.start.p0(i64 8, ptr %8) #9
  %12 = load ptr, ptr %5, align 8, !tbaa !3
  store ptr %12, ptr %8, align 8, !tbaa !9
  call void @llvm.lifetime.start.p0(i64 8, ptr %9) #9
  %13 = load ptr, ptr %6, align 8, !tbaa !3
  store ptr %13, ptr %9, align 8, !tbaa !9
  call void @llvm.lifetime.start.p0(i64 8, ptr %10) #9
  %14 = load ptr, ptr %7, align 8, !tbaa !3
  store ptr %14, ptr %10, align 8, !tbaa !39
  %15 = load ptr, ptr %10, align 8, !tbaa !39
  %16 = load ptr, ptr %8, align 8, !tbaa !9
  %17 = load i32, ptr %16, align 4, !tbaa !7
  %18 = sext i32 %17 to i64
  %19 = getelementptr inbounds double, ptr %15, i64 %18
  %20 = load double, ptr %19, align 8, !tbaa !37
  %21 = load ptr, ptr %10, align 8, !tbaa !39
  %22 = load ptr, ptr %9, align 8, !tbaa !9
  %23 = load i32, ptr %22, align 4, !tbaa !7
  %24 = sext i32 %23 to i64
  %25 = getelementptr inbounds double, ptr %21, i64 %24
  %26 = load double, ptr %25, align 8, !tbaa !37
  %27 = fcmp olt double %20, %26
  br i1 %27, label %28, label %29

28:                                               ; preds = %3
  store i32 -1, ptr %4, align 4
  store i32 1, ptr %11, align 4
  br label %45

29:                                               ; preds = %3
  %30 = load ptr, ptr %10, align 8, !tbaa !39
  %31 = load ptr, ptr %8, align 8, !tbaa !9
  %32 = load i32, ptr %31, align 4, !tbaa !7
  %33 = sext i32 %32 to i64
  %34 = getelementptr inbounds double, ptr %30, i64 %33
  %35 = load double, ptr %34, align 8, !tbaa !37
  %36 = load ptr, ptr %10, align 8, !tbaa !39
  %37 = load ptr, ptr %9, align 8, !tbaa !9
  %38 = load i32, ptr %37, align 4, !tbaa !7
  %39 = sext i32 %38 to i64
  %40 = getelementptr inbounds double, ptr %36, i64 %39
  %41 = load double, ptr %40, align 8, !tbaa !37
  %42 = fcmp ogt double %35, %41
  br i1 %42, label %43, label %44

43:                                               ; preds = %29
  store i32 1, ptr %4, align 4
  store i32 1, ptr %11, align 4
  br label %45

44:                                               ; preds = %29
  store i32 0, ptr %4, align 4
  store i32 1, ptr %11, align 4
  br label %45

45:                                               ; preds = %44, %43, %28
  call void @llvm.lifetime.end.p0(i64 8, ptr %10) #9
  call void @llvm.lifetime.end.p0(i64 8, ptr %9) #9
  call void @llvm.lifetime.end.p0(i64 8, ptr %8) #9
  %46 = load i32, ptr %4, align 4
  ret i32 %46
}